; Function Attrs: mustprogress nounwind uwtable
define hidden noundef range(i32 -2147483647, -2147483648) i32 @_ZN12ObjectLookup19sort_oop_by_addressERKP7oopDescRKNS_11ObjectEntryE(ptr nocapture noundef nonnull readonly align 8 dereferenceable(8) %0, ptr nocapture noundef nonnull readonly align 8 dereferenceable(12) %1) local_unnamed_addr #0 align 2 {
  %3 = load ptr, ptr %0, align 8
  %4 = load ptr, ptr %1, align 8
  %.not.i.i = icmp eq ptr %4, null
  br i1 %.not.i.i, label %_ZNK12ObjectLookup11ObjectEntry9oop_valueEv.exit, label %5

5:                                                ; preds = %2
  %6 = ptrtoint ptr %4 to i64
  %7 = and i64 %6, 3
  switch i64 %7, label %16 [
    i64 1, label %8
    i64 2, label %12
  ]

8:                                                ; preds = %5
  %9 = getelementptr inbounds i8, ptr %4, i64 -1
  %10 = load ptr, ptr @_ZN14AccessInternal15RuntimeDispatchILm598084EP7oopDescLNS_11BarrierTypeE2EE10_load_funcE, align 8
  %11 = tail call noundef ptr %10(ptr noundef nonnull %9) #11
  br label %_ZNK12ObjectLookup11ObjectEntry9oop_valueEv.exit

12:                                               ; preds = %5
  %13 = getelementptr inbounds i8, ptr %4, i64 -2
  %14 = load ptr, ptr @_ZN14AccessInternal15RuntimeDispatchILm548932EP7oopDescLNS_11BarrierTypeE2EE10_load_funcE, align 8
  %15 = tail call noundef ptr %14(ptr noundef nonnull %13) #11
  br label %_ZNK12ObjectLookup11ObjectEntry9oop_valueEv.exit

16:                                               ; preds = %5
  %17 = load ptr, ptr %4, align 8
  br label %_ZNK12ObjectLookup11ObjectEntry9oop_valueEv.exit

_ZNK12ObjectLookup11ObjectEntry9oop_valueEv.exit: ; preds = %2, %8, %12, %16
  %.0.i.i = phi ptr [ null, %2 ], [ %11, %8 ], [ %15, %12 ], [ %17, %16 ]
  %18 = icmp ult ptr %3, %.0.i.i
  %19 = icmp ugt ptr %3, %.0.i.i
  %..i.neg.i = sext i1 %19 to i32
  %.0.i.neg.i = select i1 %18, i32 1, i32 %..i.neg.i
  ret i32 %.0.i.neg.i
}